target datalayout = "e-m:e-p270:32:32-p271:32:32-p272:64:64-i64:64-i128:128-f80:128-n8:16:32:64-S128"
target triple = "x86_64-pc-linux-gnu"

%class.ciBlock = type { i32, i32, i32, i32, i32, i32, i32 }

; Function Attrs: mustprogress nounwind uwtable
define linkonce_odr hidden void @_ZN7ciBlock11set_handlerEv(ptr noundef nonnull align 4 dereferenceable(28) %0) #1 comdat align 2 {
  %2 = alloca ptr, align 8
  store ptr %0, ptr %2, align 8
  %3 = load ptr, ptr %2, align 8
  %4 = getelementptr inbounds %class.ciBlock, ptr %3, i32 0, i32 4
  %5 = load i32, ptr %4, align 4
  %6 = or i32 %5, 2
  store i32 %6, ptr %4, align 4
  ret void
}

; Function Attrs: mustprogress nounwind uwtable
define hidden void @_ZN7ciBlock19set_exception_rangeEii(ptr noundef nonnull align 4 dereferenceable(28) %0, i32 noundef %1, i32 noundef %2) #1 align 2 {
  %4 = alloca ptr, align 8
  %5 = alloca i32, align 4
  %6 = alloca i32, align 4
  store ptr %0, ptr %4, align 8
  store i32 %1, ptr %5, align 4
  store i32 %2, ptr %6, align 4
  %7 = load ptr, ptr %4, align 8
  %8 = load i32, ptr %5, align 4
  %9 = getelementptr inbounds %class.ciBlock, ptr %7, i32 0, i32 5
  store i32 %8, ptr %9, align 4
  %10 = load i32, ptr %6, align 4
  %11 = getelementptr inbounds %class.ciBlock, ptr %7, i32 0, i32 6
  store i32 %10, ptr %11, align 4
  call void @_ZN7ciBlock11set_handlerEv(ptr noundef nonnull align 4 dereferenceable(28) %7)
  ret void
}