; Function Attrs: mustprogress nofree norecurse nosync nounwind willreturn memory(argmem: readwrite) uwtable
define hidden void @_ZN7ciBlock19set_exception_rangeEii(ptr nocapture noundef nonnull align 4 dereferenceable(28) %0, i32 noundef %1, i32 noundef %2) local_unnamed_addr #3 align 2 {
  %4 = getelementptr inbounds i8, ptr %0, i64 20
  store i32 %1, ptr %4, align 4
  %5 = getelementptr inbounds i8, ptr %0, i64 24
  store i32 %2, ptr %5, align 4
  %6 = getelementptr inbounds i8, ptr %0, i64 16
  %7 = load i32, ptr %6, align 4
  %8 = or i32 %7, 2
  store i32 %8, ptr %6, align 4
  ret void
}